target datalayout = "e-m:e-p270:32:32-p271:32:32-p272:64:64-i64:64-i128:128-f80:128-n8:16:32:64-S128"
target triple = "x86_64-unknown-linux-gnu"

%"class.node::quic::Packet" = type { %"class.node::ReqWrap", ptr, %"class.node::SocketAddress", %"class.std::shared_ptr", %"class.node::BaseObjectPtrImpl" }
%"class.node::ReqWrap" = type { %"class.node::AsyncWrap", %"class.node::ReqWrapBase", ptr, %struct.uv_udp_send_s }
%"class.node::AsyncWrap" = type { %"class.node::BaseObject", i32, i8, double, double }
%"class.node::BaseObject" = type { %"class.node::MemoryRetainer", %"class.v8::Global", ptr, ptr }
%"class.node::MemoryRetainer" = type { ptr }
%"class.v8::Global" = type { %"class.v8::PersistentBase" }
%"class.v8::PersistentBase" = type { %"class.v8::IndirectHandleBase" }
%"class.v8::IndirectHandleBase" = type { ptr }
%"class.node::ReqWrapBase" = type { ptr, %"class.node::ListNode" }
%"class.node::ListNode" = type { ptr, ptr }
%struct.uv_udp_send_s = type { ptr, i32, [6 x ptr], ptr, ptr, %struct.uv__queue, %struct.sockaddr_storage, i32, ptr, i64, ptr, [4 x %struct.uv_buf_t] }
%struct.uv__queue = type { ptr, ptr }
%struct.sockaddr_storage = type { i16, [118 x i8], i64 }
%struct.uv_buf_t = type { ptr, i64 }
%"class.node::SocketAddress" = type { %"class.node::MemoryRetainer", %struct.sockaddr_storage }
%"class.std::shared_ptr" = type { %"class.std::__shared_ptr" }
%"class.std::__shared_ptr" = type { ptr, %"class.std::__shared_count" }
%"class.std::__shared_count" = type { ptr }
%"class.node::BaseObjectPtrImpl" = type { %union.anon }
%union.anon = type { ptr }
%"struct.node::quic::Packet::Data" = type { %"class.node::MemoryRetainer", %"class.node::MaybeStackBuffer", %"class.std::__cxx11::basic_string" }
%"class.node::MaybeStackBuffer" = type { i64, i64, ptr, [1200 x i8] }
%"class.std::__cxx11::basic_string" = type { %"struct.std::__cxx11::basic_string<char>::_Alloc_hider", i64, %union.anon.0 }
%"struct.std::__cxx11::basic_string<char>::_Alloc_hider" = type { ptr }
%union.anon.0 = type { i64, [8 x i8] }

; Function Attrs: mustprogress nounwind uwtable
define linkonce_odr dso_local noundef ptr @_ZNKSt12__shared_ptrIN4node4quic6Packet4DataELN9__gnu_cxx12_Lock_policyE2EE3getEv(ptr noundef nonnull align 8 dereferenceable(16) %this) #4 comdat align 2 {
entry:
  %this.addr = alloca ptr, align 8
  store ptr %this, ptr %this.addr, align 8
  %this1 = load ptr, ptr %this.addr, align 8
  %_M_ptr = getelementptr inbounds %"class.std::__shared_ptr", ptr %this1, i32 0, i32 0
  %0 = load ptr, ptr %_M_ptr, align 8
  ret ptr %0
}

; Function Attrs: mustprogress nounwind uwtable
define linkonce_odr dso_local noundef i64 @_ZNK4node16MaybeStackBufferIhLm1200EE6lengthEv(ptr noundef nonnull align 8 dereferenceable(1224) %this) #4 comdat align 2 {
entry:
  %this.addr = alloca ptr, align 8
  store ptr %this, ptr %this.addr, align 8
  %this1 = load ptr, ptr %this.addr, align 8
  %length_ = getelementptr inbounds %"class.node::MaybeStackBuffer", ptr %this1, i32 0, i32 0
  %0 = load i64, ptr %length_, align 8
  ret i64 %0
}

; Function Attrs: mustprogress nounwind uwtable
define linkonce_odr dso_local noundef ptr @_ZN4node16MaybeStackBufferIhLm1200EE3outEv(ptr noundef nonnull align 8 dereferenceable(1224) %this) #4 comdat align 2 {
entry:
  %this.addr = alloca ptr, align 8
  store ptr %this, ptr %this.addr, align 8
  %this1 = load ptr, ptr %this.addr, align 8
  %buf_ = getelementptr inbounds %"class.node::MaybeStackBuffer", ptr %this1, i32 0, i32 2
  %0 = load ptr, ptr %buf_, align 8
  ret ptr %0
}

; Function Attrs: mustprogress nounwind uwtable
define linkonce_odr dso_local noundef ptr @_ZNKSt19__shared_ptr_accessIN4node4quic6Packet4DataELN9__gnu_cxx12_Lock_policyE2ELb0ELb0EE6_M_getEv(ptr noundef nonnull align 1 dereferenceable(1) %this) #4 comdat align 2 {
entry:
  %this.addr = alloca ptr, align 8
  store ptr %this, ptr %this.addr, align 8
  %this1 = load ptr, ptr %this.addr, align 8
  %call = call noundef ptr @_ZNKSt12__shared_ptrIN4node4quic6Packet4DataELN9__gnu_cxx12_Lock_policyE2EE3getEv(ptr noundef nonnull align 8 dereferenceable(16) %this1) #3
  ret ptr %call
}

; Function Attrs: mustprogress nounwind uwtable
define linkonce_odr dso_local { ptr, i64 } @_ZN4node4quic6Packet4Datacv8uv_buf_tEv(ptr noundef nonnull align 8 dereferenceable(1264) %this) #4 comdat align 2 {
entry:
  %retval = alloca %struct.uv_buf_t, align 8
  %this.addr = alloca ptr, align 8
  store ptr %this, ptr %this.addr, align 8
  %this1 = load ptr, ptr %this.addr, align 8
  %data_ = getelementptr inbounds %"struct.node::quic::Packet::Data", ptr %this1, i32 0, i32 1
  %call = call noundef ptr @_ZN4node16MaybeStackBufferIhLm1200EE3outEv(ptr noundef nonnull align 8 dereferenceable(1224) %data_)
  %data_2 = getelementptr inbounds %"struct.node::quic::Packet::Data", ptr %this1, i32 0, i32 1
  %call3 = call noundef i64 @_ZNK4node16MaybeStackBufferIhLm1200EE6lengthEv(ptr noundef nonnull align 8 dereferenceable(1224) %data_2)
  %conv = trunc i64 %call3 to i32
  %call4 = call { ptr, i64 } @uv_buf_init(ptr noundef %call, i32 noundef %conv)
  %0 = getelementptr inbounds { ptr, i64 }, ptr %retval, i32 0, i32 0
  %1 = extractvalue { ptr, i64 } %call4, 0
  store ptr %1, ptr %0, align 8
  %2 = getelementptr inbounds { ptr, i64 }, ptr %retval, i32 0, i32 1
  %3 = extractvalue { ptr, i64 } %call4, 1
  store i64 %3, ptr %2, align 8
  %4 = load { ptr, i64 }, ptr %retval, align 8
  ret { ptr, i64 } %4
}

; Function Attrs: mustprogress nounwind uwtable
define linkonce_odr dso_local noundef nonnull align 8 dereferenceable(1264) ptr @_ZNKSt19__shared_ptr_accessIN4node4quic6Packet4DataELN9__gnu_cxx12_Lock_policyE2ELb0ELb0EEdeEv(ptr noundef nonnull align 1 dereferenceable(1) %this) #4 comdat align 2 {
entry:
  %this.addr = alloca ptr, align 8
  store ptr %this, ptr %this.addr, align 8
  %this1 = load ptr, ptr %this.addr, align 8
  br label %do.body

do.body:                                          ; preds = %entry
  br label %do.end

do.end:                                           ; preds = %do.body
  %call = call noundef ptr @_ZNKSt19__shared_ptr_accessIN4node4quic6Packet4DataELN9__gnu_cxx12_Lock_policyE2ELb0ELb0EE6_M_getEv(ptr noundef nonnull align 1 dereferenceable(1) %this1) #3
  ret ptr %call
}

; Function Attrs: mustprogress nounwind uwtable
define linkonce_odr dso_local noundef zeroext i1 @_ZNKSt12__shared_ptrIN4node4quic6Packet4DataELN9__gnu_cxx12_Lock_policyE2EEcvbEv(ptr noundef nonnull align 8 dereferenceable(16) %this) #4 comdat align 2 {
entry:
  %this.addr = alloca ptr, align 8
  store ptr %this, ptr %this.addr, align 8
  %this1 = load ptr, ptr %this.addr, align 8
  %_M_ptr = getelementptr inbounds %"class.std::__shared_ptr", ptr %this1, i32 0, i32 0
  %0 = load ptr, ptr %_M_ptr, align 8
  %cmp = icmp ne ptr %0, null
  ret i1 %cmp
}

; Function Attrs: mustprogress nounwind uwtable
define dso_local { ptr, i64 } @_ZNK4node4quic6Packetcv8uv_buf_tEv(ptr noundef nonnull align 8 dereferenceable(576) %this) #4 align 2 {
entry:
  %retval = alloca %struct.uv_buf_t, align 8
  %this.addr = alloca ptr, align 8
  store ptr %this, ptr %this.addr, align 8
  %this1 = load ptr, ptr %this.addr, align 8
  %data_ = getelementptr inbounds %"class.node::quic::Packet", ptr %this1, i32 0, i32 3
  %call = call noundef zeroext i1 @_ZNKSt12__shared_ptrIN4node4quic6Packet4DataELN9__gnu_cxx12_Lock_policyE2EEcvbEv(ptr noundef nonnull align 8 dereferenceable(16) %data_) #3
  br i1 %call, label %cond.false, label %cond.true

cond.true:                                        ; preds = %entry
  %call2 = call { ptr, i64 } @uv_buf_init(ptr noundef null, i32 noundef 0)
  %0 = getelementptr inbounds { ptr, i64 }, ptr %retval, i32 0, i32 0
  %1 = extractvalue { ptr, i64 } %call2, 0
  store ptr %1, ptr %0, align 8
  %2 = getelementptr inbounds { ptr, i64 }, ptr %retval, i32 0, i32 1
  %3 = extractvalue { ptr, i64 } %call2, 1
  store i64 %3, ptr %2, align 8
  br label %cond.end

cond.false:                                       ; preds = %entry
  %data_3 = getelementptr inbounds %"class.node::quic::Packet", ptr %this1, i32 0, i32 3
  %call4 = call noundef nonnull align 8 dereferenceable(1264) ptr @_ZNKSt19__shared_ptr_accessIN4node4quic6Packet4DataELN9__gnu_cxx12_Lock_policyE2ELb0ELb0EEdeEv(ptr noundef nonnull align 1 dereferenceable(1) %data_3) #3
  %call5 = call { ptr, i64 } @_ZN4node4quic6Packet4Datacv8uv_buf_tEv(ptr noundef nonnull align 8 dereferenceable(1264) %call4)
  %4 = getelementptr inbounds { ptr, i64 }, ptr %retval, i32 0, i32 0
  %5 = extractvalue { ptr, i64 } %call5, 0
  store ptr %5, ptr %4, align 8
  %6 = getelementptr inbounds { ptr, i64 }, ptr %retval, i32 0, i32 1
  %7 = extractvalue { ptr, i64 } %call5, 1
  store i64 %7, ptr %6, align 8
  br label %cond.end

cond.end:                                         ; preds = %cond.false, %cond.true
  %8 = load { ptr, i64 }, ptr %retval, align 8
  ret { ptr, i64 } %8
}