; Function Attrs: mustprogress nounwind uwtable
define dso_local { ptr, i64 } @_ZNK4node4quic6Packetcv8uv_buf_tEv(ptr nocapture noundef nonnull readonly align 8 dereferenceable(576) %this) local_unnamed_addr #6 align 2 {
entry:
  %data_ = getelementptr inbounds i8, ptr %this, i64 552
  %0 = load ptr, ptr %data_, align 8
  %cmp.i.not = icmp eq ptr %0, null
  br i1 %cmp.i.not, label %cond.true, label %cond.false

cond.true:                                        ; preds = %entry
  %call2 = tail call { ptr, i64 } @uv_buf_init(ptr noundef null, i32 noundef 0) #22
  br label %cond.end

cond.false:                                       ; preds = %entry
  %data_.i = getelementptr inbounds i8, ptr %0, i64 8
  %buf_.i.i = getelementptr inbounds i8, ptr %0, i64 24
  %1 = load ptr, ptr %buf_.i.i, align 8
  %2 = load i64, ptr %data_.i, align 8
  %conv.i = trunc i64 %2 to i32
  %call4.i = tail call { ptr, i64 } @uv_buf_init(ptr noundef %1, i32 noundef %conv.i) #22
  br label %cond.end

cond.end:                                         ; preds = %cond.false, %cond.true
  %call5.pn = phi { ptr, i64 } [ %call4.i, %cond.false ], [ %call2, %cond.true ]
  ret { ptr, i64 } %call5.pn
}